target datalayout = "e-m:e-p270:32:32-p271:32:32-p272:64:64-i64:64-i128:128-f80:128-n8:16:32:64-S128"
target triple = "x86_64-pc-linux-gnu"

%struct.RangeBound = type { i64, i8, i8, i8 }
%struct.FunctionCallInfoBaseData = type { ptr, ptr, ptr, i32, i8, i16, [0 x %struct.NullableDatum] }
%struct.NullableDatum = type { i64, i8 }
%struct.FmgrInfo = type { ptr, i32, i16, i8, i8, i8, ptr, ptr, ptr }
%struct.TypeCacheEntry = type { i32, i32, i16, i8, i8, i8, i8, i32, i32, i32, i32, i32, i32, i32, i32, i32, i32, i32, i32, i32, i32, %struct.FmgrInfo, %struct.FmgrInfo, %struct.FmgrInfo, %struct.FmgrInfo, ptr, i64, ptr, i32, i32, %struct.FmgrInfo, %struct.FmgrInfo, %struct.FmgrInfo, ptr, i32, i32, ptr, i32, ptr, ptr }

@.str.1 = private unnamed_addr constant [13 x i8] c"rangetypes.c\00", align 1
@.str.12 = private unnamed_addr constant [28 x i8] c"type %u is not a range type\00", align 1
@__func__.range_get_typcache = private unnamed_addr constant [19 x i8] c"range_get_typcache\00", align 1

; Function Attrs: inlinehint nounwind uwtable
define internal i64 @PointerGetDatum(ptr noundef %0) #2 {
  %2 = alloca ptr, align 8
  store ptr %0, ptr %2, align 8
  %3 = load ptr, ptr %2, align 8
  %4 = ptrtoint ptr %3 to i64
  ret i64 %4
}

; Function Attrs: inlinehint nounwind uwtable
define internal i64 @RangeTypePGetDatum(ptr noundef %0) #2 {
  %2 = alloca ptr, align 8
  store ptr %0, ptr %2, align 8
  %3 = load ptr, ptr %2, align 8
  %4 = call i64 @PointerGetDatum(ptr noundef %3)
  ret i64 %4
}

; Function Attrs: nounwind uwtable
define dso_local ptr @range_get_typcache(ptr noundef %0, i32 noundef %1) #0 {
  %3 = alloca ptr, align 8
  %4 = alloca i32, align 4
  %5 = alloca ptr, align 8
  store ptr %0, ptr %3, align 8
  store i32 %1, ptr %4, align 4
  call void @llvm.lifetime.start.p0(i64 8, ptr %5) #10
  %6 = load ptr, ptr %3, align 8
  %7 = getelementptr inbounds nuw %struct.FunctionCallInfoBaseData, ptr %6, i32 0, i32 0
  %8 = load ptr, ptr %7, align 8
  %9 = getelementptr inbounds nuw %struct.FmgrInfo, ptr %8, i32 0, i32 6
  %10 = load ptr, ptr %9, align 8
  store ptr %10, ptr %5, align 8
  %11 = load ptr, ptr %5, align 8
  %12 = icmp eq ptr %11, null
  br i1 %12, label %19, label %13

13:                                               ; preds = %2
  %14 = load ptr, ptr %5, align 8
  %15 = getelementptr inbounds nuw %struct.TypeCacheEntry, ptr %14, i32 0, i32 0
  %16 = load i32, ptr %15, align 8
  %17 = load i32, ptr %4, align 4
  %18 = icmp ne i32 %16, %17
  br i1 %18, label %19, label %44

19:                                               ; preds = %13, %2
  %20 = load i32, ptr %4, align 4
  %21 = call ptr @lookup_type_cache(i32 noundef %20, i32 noundef 2048)
  store ptr %21, ptr %5, align 8
  %22 = load ptr, ptr %5, align 8
  %23 = getelementptr inbounds nuw %struct.TypeCacheEntry, ptr %22, i32 0, i32 27
  %24 = load ptr, ptr %23, align 8
  %25 = icmp eq ptr %24, null
  br i1 %25, label %26, label %38

26:                                               ; preds = %19
  br label %27

27:                                               ; preds = %26
  br i1 true, label %28, label %30

28:                                               ; preds = %27
  %29 = call zeroext i1 @errstart_cold(i32 noundef 21, ptr noundef null) #11
  br i1 %29, label %32, label %35

30:                                               ; preds = %27
  %31 = call zeroext i1 @errstart(i32 noundef 21, ptr noundef null)
  br i1 %31, label %32, label %35

32:                                               ; preds = %30, %28
  %33 = load i32, ptr %4, align 4
  %34 = call i32 (ptr, ...) @errmsg_internal(ptr noundef @.str.12, i32 noundef %33)
  call void @errfinish(ptr noundef @.str.1, i32 noundef 1712, ptr noundef @__func__.range_get_typcache)
  br label %35

35:                                               ; preds = %32, %30, %28
  unreachable

36:                                               ; No predecessors!
  br label %37

37:                                               ; preds = %36
  br label %38

38:                                               ; preds = %37, %19
  %39 = load ptr, ptr %5, align 8
  %40 = load ptr, ptr %3, align 8
  %41 = getelementptr inbounds nuw %struct.FunctionCallInfoBaseData, ptr %40, i32 0, i32 0
  %42 = load ptr, ptr %41, align 8
  %43 = getelementptr inbounds nuw %struct.FmgrInfo, ptr %42, i32 0, i32 6
  store ptr %39, ptr %43, align 8
  br label %44

44:                                               ; preds = %38, %13
  %45 = load ptr, ptr %5, align 8
  call void @llvm.lifetime.end.p0(i64 8, ptr %5) #10
  ret ptr %45
}

; Function Attrs: nounwind uwtable
define dso_local i64 @range_constructor2(ptr noundef %0) #0 {
  %2 = alloca ptr, align 8
  %3 = alloca i64, align 8
  %4 = alloca i64, align 8
  %5 = alloca i32, align 4
  %6 = alloca ptr, align 8
  %7 = alloca ptr, align 8
  %8 = alloca %struct.RangeBound, align 8
  %9 = alloca %struct.RangeBound, align 8
  store ptr %0, ptr %2, align 8
  call void @llvm.lifetime.start.p0(i64 8, ptr %3) #10
  %10 = load ptr, ptr %2, align 8
  %11 = getelementptr inbounds nuw %struct.FunctionCallInfoBaseData, ptr %10, i32 0, i32 6
  %12 = getelementptr inbounds [0 x %struct.NullableDatum], ptr %11, i64 0, i64 0
  %13 = getelementptr inbounds nuw %struct.NullableDatum, ptr %12, i32 0, i32 0
  %14 = load i64, ptr %13, align 8
  store i64 %14, ptr %3, align 8
  call void @llvm.lifetime.start.p0(i64 8, ptr %4) #10
  %15 = load ptr, ptr %2, align 8
  %16 = getelementptr inbounds nuw %struct.FunctionCallInfoBaseData, ptr %15, i32 0, i32 6
  %17 = getelementptr inbounds [0 x %struct.NullableDatum], ptr %16, i64 0, i64 1
  %18 = getelementptr inbounds nuw %struct.NullableDatum, ptr %17, i32 0, i32 0
  %19 = load i64, ptr %18, align 8
  store i64 %19, ptr %4, align 8
  call void @llvm.lifetime.start.p0(i64 4, ptr %5) #10
  %20 = load ptr, ptr %2, align 8
  %21 = getelementptr inbounds nuw %struct.FunctionCallInfoBaseData, ptr %20, i32 0, i32 0
  %22 = load ptr, ptr %21, align 8
  %23 = call i32 @get_fn_expr_rettype(ptr noundef %22)
  store i32 %23, ptr %5, align 4
  call void @llvm.lifetime.start.p0(i64 8, ptr %6) #10
  call void @llvm.lifetime.start.p0(i64 8, ptr %7) #10
  call void @llvm.lifetime.start.p0(i64 16, ptr %8) #10
  call void @llvm.lifetime.start.p0(i64 16, ptr %9) #10
  %24 = load ptr, ptr %2, align 8
  %25 = load i32, ptr %5, align 4
  %26 = call ptr @range_get_typcache(ptr noundef %24, i32 noundef %25)
  store ptr %26, ptr %7, align 8
  %27 = load ptr, ptr %2, align 8
  %28 = getelementptr inbounds nuw %struct.FunctionCallInfoBaseData, ptr %27, i32 0, i32 6
  %29 = getelementptr inbounds [0 x %struct.NullableDatum], ptr %28, i64 0, i64 0
  %30 = getelementptr inbounds nuw %struct.NullableDatum, ptr %29, i32 0, i32 1
  %31 = load i8, ptr %30, align 8, !range !7, !noundef !8
  %32 = trunc i8 %31 to i1
  br i1 %32, label %33, label %34

33:                                               ; preds = %1
  br label %36

34:                                               ; preds = %1
  %35 = load i64, ptr %3, align 8
  br label %36

36:                                               ; preds = %34, %33
  %37 = phi i64 [ 0, %33 ], [ %35, %34 ]
  %38 = getelementptr inbounds nuw %struct.RangeBound, ptr %8, i32 0, i32 0
  store i64 %37, ptr %38, align 8
  %39 = load ptr, ptr %2, align 8
  %40 = getelementptr inbounds nuw %struct.FunctionCallInfoBaseData, ptr %39, i32 0, i32 6
  %41 = getelementptr inbounds [0 x %struct.NullableDatum], ptr %40, i64 0, i64 0
  %42 = getelementptr inbounds nuw %struct.NullableDatum, ptr %41, i32 0, i32 1
  %43 = load i8, ptr %42, align 8, !range !7, !noundef !8
  %44 = trunc i8 %43 to i1
  %45 = getelementptr inbounds nuw %struct.RangeBound, ptr %8, i32 0, i32 1
  %46 = zext i1 %44 to i8
  store i8 %46, ptr %45, align 8
  %47 = getelementptr inbounds nuw %struct.RangeBound, ptr %8, i32 0, i32 2
  store i8 1, ptr %47, align 1
  %48 = getelementptr inbounds nuw %struct.RangeBound, ptr %8, i32 0, i32 3
  store i8 1, ptr %48, align 2
  %49 = load ptr, ptr %2, align 8
  %50 = getelementptr inbounds nuw %struct.FunctionCallInfoBaseData, ptr %49, i32 0, i32 6
  %51 = getelementptr inbounds [0 x %struct.NullableDatum], ptr %50, i64 0, i64 1
  %52 = getelementptr inbounds nuw %struct.NullableDatum, ptr %51, i32 0, i32 1
  %53 = load i8, ptr %52, align 8, !range !7, !noundef !8
  %54 = trunc i8 %53 to i1
  br i1 %54, label %55, label %56

55:                                               ; preds = %36
  br label %58

56:                                               ; preds = %36
  %57 = load i64, ptr %4, align 8
  br label %58

58:                                               ; preds = %56, %55
  %59 = phi i64 [ 0, %55 ], [ %57, %56 ]
  %60 = getelementptr inbounds nuw %struct.RangeBound, ptr %9, i32 0, i32 0
  store i64 %59, ptr %60, align 8
  %61 = load ptr, ptr %2, align 8
  %62 = getelementptr inbounds nuw %struct.FunctionCallInfoBaseData, ptr %61, i32 0, i32 6
  %63 = getelementptr inbounds [0 x %struct.NullableDatum], ptr %62, i64 0, i64 1
  %64 = getelementptr inbounds nuw %struct.NullableDatum, ptr %63, i32 0, i32 1
  %65 = load i8, ptr %64, align 8, !range !7, !noundef !8
  %66 = trunc i8 %65 to i1
  %67 = getelementptr inbounds nuw %struct.RangeBound, ptr %9, i32 0, i32 1
  %68 = zext i1 %66 to i8
  store i8 %68, ptr %67, align 8
  %69 = getelementptr inbounds nuw %struct.RangeBound, ptr %9, i32 0, i32 2
  store i8 0, ptr %69, align 1
  %70 = getelementptr inbounds nuw %struct.RangeBound, ptr %9, i32 0, i32 3
  store i8 0, ptr %70, align 2
  %71 = load ptr, ptr %7, align 8
  %72 = call ptr @make_range(ptr noundef %71, ptr noundef %8, ptr noundef %9, i1 noundef zeroext false, ptr noundef null)
  store ptr %72, ptr %6, align 8
  %73 = load ptr, ptr %6, align 8
  %74 = call i64 @RangeTypePGetDatum(ptr noundef %73)
  call void @llvm.lifetime.end.p0(i64 16, ptr %9) #10
  call void @llvm.lifetime.end.p0(i64 16, ptr %8) #10
  call void @llvm.lifetime.end.p0(i64 8, ptr %7) #10
  call void @llvm.lifetime.end.p0(i64 8, ptr %6) #10
  call void @llvm.lifetime.end.p0(i64 4, ptr %5) #10
  call void @llvm.lifetime.end.p0(i64 8, ptr %4) #10
  call void @llvm.lifetime.end.p0(i64 8, ptr %3) #10
  ret i64 %74
}