; Function Attrs: nounwind uwtable
define dso_local i64 @range_constructor2(ptr noundef readonly captures(none) %0) local_unnamed_addr #0 {
  %2 = alloca %struct.RangeBound, align 8
  %3 = alloca %struct.RangeBound, align 8
  %4 = getelementptr inbounds nuw i8, ptr %0, i64 32
  %5 = load i64, ptr %4, align 8
  %6 = getelementptr inbounds nuw i8, ptr %0, i64 48
  %7 = load i64, ptr %6, align 8
  %8 = load ptr, ptr %0, align 8
  %9 = tail call i32 @get_fn_expr_rettype(ptr noundef %8) #14
  call void @llvm.lifetime.start.p0(i64 16, ptr nonnull %2) #14
  call void @llvm.lifetime.start.p0(i64 16, ptr nonnull %3) #14
  %10 = load ptr, ptr %0, align 8
  %11 = getelementptr inbounds nuw i8, ptr %10, i64 24
  %12 = load ptr, ptr %11, align 8
  %13 = icmp eq ptr %12, null
  br i1 %13, label %16, label %14

14:                                               ; preds = %1
  %15 = load i32, ptr %12, align 8
  %.not.i = icmp eq i32 %15, %9
  br i1 %.not.i, label %range_get_typcache.exit, label %16

16:                                               ; preds = %14, %1
  %17 = tail call ptr @lookup_type_cache(i32 noundef %9, i32 noundef 2048) #14
  %18 = getelementptr inbounds nuw i8, ptr %17, i64 280
  %19 = load ptr, ptr %18, align 8
  %20 = icmp eq ptr %19, null
  br i1 %20, label %21, label %24

21:                                               ; preds = %16
  %22 = tail call zeroext i1 @errstart_cold(i32 noundef 21, ptr noundef null) #16
  tail call void @llvm.assume(i1 %22)
  %23 = tail call i32 (ptr, ...) @errmsg_internal(ptr noundef nonnull @.str.12, i32 noundef %9) #14
  tail call void @errfinish(ptr noundef nonnull @.str.1, i32 noundef 1712, ptr noundef nonnull @__func__.range_get_typcache) #14
  unreachable

24:                                               ; preds = %16
  %25 = load ptr, ptr %0, align 8
  %26 = getelementptr inbounds nuw i8, ptr %25, i64 24
  store ptr %17, ptr %26, align 8
  br label %range_get_typcache.exit

range_get_typcache.exit:                          ; preds = %14, %24
  %.0.i = phi ptr [ %17, %24 ], [ %12, %14 ]
  %27 = getelementptr inbounds nuw i8, ptr %0, i64 40
  %28 = load i8, ptr %27, align 8, !range !7, !noundef !8
  %29 = trunc nuw i8 %28 to i1
  %30 = select i1 %29, i64 0, i64 %5
  store i64 %30, ptr %2, align 8
  %31 = getelementptr inbounds nuw i8, ptr %2, i64 8
  store i8 %28, ptr %31, align 8
  %32 = getelementptr inbounds nuw i8, ptr %2, i64 9
  store i8 1, ptr %32, align 1
  %33 = getelementptr inbounds nuw i8, ptr %2, i64 10
  store i8 1, ptr %33, align 2
  %34 = getelementptr inbounds nuw i8, ptr %0, i64 56
  %35 = load i8, ptr %34, align 8, !range !7, !noundef !8
  %36 = trunc nuw i8 %35 to i1
  %37 = select i1 %36, i64 0, i64 %7
  store i64 %37, ptr %3, align 8
  %38 = getelementptr inbounds nuw i8, ptr %3, i64 8
  store i8 %35, ptr %38, align 8
  %39 = getelementptr inbounds nuw i8, ptr %3, i64 9
  store i8 0, ptr %39, align 1
  %40 = getelementptr inbounds nuw i8, ptr %3, i64 10
  store i8 0, ptr %40, align 2
  %41 = call ptr @make_range(ptr noundef nonnull %.0.i, ptr noundef nonnull %2, ptr noundef nonnull %3, i1 noundef zeroext false, ptr noundef null)
  %42 = ptrtoint ptr %41 to i64
  call void @llvm.lifetime.end.p0(i64 16, ptr nonnull %3) #14
  call void @llvm.lifetime.end.p0(i64 16, ptr nonnull %2) #14
  ret i64 %42
}